; Function Attrs: nounwind uwtable
define void @dt_control_hinter_message(ptr noundef readonly captures(none) %0, ptr noundef %1) local_unnamed_addr #0 {
  %3 = getelementptr inbounds nuw i8, ptr %0, i64 10224
  %4 = load ptr, ptr %3, align 8, !tbaa !154
  %.not = icmp eq ptr %4, null
  br i1 %.not, label %8, label %5

5:                                                ; preds = %2
  %6 = getelementptr inbounds nuw i8, ptr %0, i64 10232
  %7 = load ptr, ptr %6, align 8, !tbaa !155
  tail call void %7(ptr noundef nonnull %4, ptr noundef %1) #13
  br label %8

8:                                                ; preds = %5, %2
  ret void
}